target datalayout = "e-m:e-p270:32:32-p271:32:32-p272:64:64-i64:64-i128:128-f80:128-n8:16:32:64-S128"
target triple = "x86_64-pc-linux-gnu"

@hf_awdl_unknown = internal global i32 0, align 4
@hf_awdl_syncparams_awcounter = internal global i32 0, align 4
@hf_awdl_syncparams_apbeaconalignment = internal global i32 0, align 4
@hf_awdl_syncparams_master = internal global i32 0, align 4
@hf_awdl_syncparams_tx_chan = internal global i32 0, align 4
@hf_awdl_syncparams_tx_counter = internal global i32 0, align 4
@hf_awdl_syncparams_master_chan = internal global i32 0, align 4
@hf_awdl_syncparams_guard_time = internal global i32 0, align 4
@hf_awdl_syncparams_aw_period = internal global i32 0, align 4
@hf_awdl_syncparams_action_frame_period = internal global i32 0, align 4
@hf_awdl_syncparams_awdl_flags = internal global i32 0, align 4
@hf_awdl_syncparams_aw_ext_length = internal global i32 0, align 4
@hf_awdl_syncparams_aw_cmn_length = internal global i32 0, align 4
@hf_awdl_syncparams_aw_remaining = internal global i32 0, align 4
@hf_awdl_syncparams_ext_min = internal global i32 0, align 4
@hf_awdl_syncparams_ext_max_multi = internal global i32 0, align 4
@hf_awdl_syncparams_ext_max_uni = internal global i32 0, align 4
@hf_awdl_syncparams_ext_max_af = internal global i32 0, align 4
@hf_awdl_syncparams_presence_mode = internal global i32 0, align 4

; Function Attrs: null_pointer_is_valid sspstrong uwtable
define internal i32 @awdl_tag_sync_params(ptr noundef %0, ptr noundef %1, ptr noundef %2, ptr noundef %3) #0 {
  %5 = alloca ptr, align 8
  %6 = alloca ptr, align 8
  %7 = alloca ptr, align 8
  %8 = alloca ptr, align 8
  %9 = alloca i32, align 4
  %10 = alloca ptr, align 8
  %11 = alloca i32, align 4
  store ptr %0, ptr %5, align 8
  store ptr %1, ptr %6, align 8
  store ptr %2, ptr %7, align 8
  store ptr %3, ptr %8, align 8
  call void @llvm.lifetime.start.p0(i64 4, ptr %9) #6
  %12 = load ptr, ptr %5, align 8
  %13 = call i32 @tvb_reported_length(ptr noundef %12)
  store i32 %13, ptr %9, align 4
  call void @llvm.lifetime.start.p0(i64 8, ptr %10) #6
  call void @llvm.lifetime.start.p0(i64 4, ptr %11) #6
  store i32 0, ptr %11, align 4
  %14 = load ptr, ptr %7, align 8
  %15 = load i32, ptr @hf_awdl_syncparams_tx_chan, align 4
  %16 = load ptr, ptr %5, align 8
  %17 = load i32, ptr %11, align 4
  %18 = call ptr @proto_tree_add_item(ptr noundef %14, i32 noundef %15, ptr noundef %16, i32 noundef %17, i32 noundef 1, i32 noundef -2147483648)
  %19 = load i32, ptr %11, align 4
  %20 = add i32 %19, 1
  store i32 %20, ptr %11, align 4
  %21 = load ptr, ptr %7, align 8
  %22 = load i32, ptr @hf_awdl_syncparams_tx_counter, align 4
  %23 = load ptr, ptr %5, align 8
  %24 = load i32, ptr %11, align 4
  %25 = call ptr @proto_tree_add_item(ptr noundef %21, i32 noundef %22, ptr noundef %23, i32 noundef %24, i32 noundef 2, i32 noundef -2147483648)
  %26 = load i32, ptr %11, align 4
  %27 = add i32 %26, 2
  store i32 %27, ptr %11, align 4
  %28 = load ptr, ptr %7, align 8
  %29 = load i32, ptr @hf_awdl_syncparams_master_chan, align 4
  %30 = load ptr, ptr %5, align 8
  %31 = load i32, ptr %11, align 4
  %32 = call ptr @proto_tree_add_item(ptr noundef %28, i32 noundef %29, ptr noundef %30, i32 noundef %31, i32 noundef 1, i32 noundef -2147483648)
  %33 = load i32, ptr %11, align 4
  %34 = add i32 %33, 1
  store i32 %34, ptr %11, align 4
  %35 = load ptr, ptr %7, align 8
  %36 = load i32, ptr @hf_awdl_syncparams_guard_time, align 4
  %37 = load ptr, ptr %5, align 8
  %38 = load i32, ptr %11, align 4
  %39 = call ptr @proto_tree_add_item(ptr noundef %35, i32 noundef %36, ptr noundef %37, i32 noundef %38, i32 noundef 1, i32 noundef -2147483648)
  %40 = load i32, ptr %11, align 4
  %41 = add i32 %40, 1
  store i32 %41, ptr %11, align 4
  %42 = load ptr, ptr %7, align 8
  %43 = load i32, ptr @hf_awdl_syncparams_aw_period, align 4
  %44 = load ptr, ptr %5, align 8
  %45 = load i32, ptr %11, align 4
  %46 = call ptr @proto_tree_add_item(ptr noundef %42, i32 noundef %43, ptr noundef %44, i32 noundef %45, i32 noundef 2, i32 noundef -2147483648)
  %47 = load i32, ptr %11, align 4
  %48 = add i32 %47, 2
  store i32 %48, ptr %11, align 4
  %49 = load ptr, ptr %7, align 8
  %50 = load i32, ptr @hf_awdl_syncparams_action_frame_period, align 4
  %51 = load ptr, ptr %5, align 8
  %52 = load i32, ptr %11, align 4
  %53 = call ptr @proto_tree_add_item(ptr noundef %49, i32 noundef %50, ptr noundef %51, i32 noundef %52, i32 noundef 2, i32 noundef -2147483648)
  %54 = load i32, ptr %11, align 4
  %55 = add i32 %54, 2
  store i32 %55, ptr %11, align 4
  %56 = load ptr, ptr %7, align 8
  %57 = load i32, ptr @hf_awdl_syncparams_awdl_flags, align 4
  %58 = load ptr, ptr %5, align 8
  %59 = load i32, ptr %11, align 4
  %60 = call ptr @proto_tree_add_item(ptr noundef %56, i32 noundef %57, ptr noundef %58, i32 noundef %59, i32 noundef 2, i32 noundef -2147483648)
  %61 = load i32, ptr %11, align 4
  %62 = add i32 %61, 2
  store i32 %62, ptr %11, align 4
  %63 = load ptr, ptr %7, align 8
  %64 = load i32, ptr @hf_awdl_syncparams_aw_ext_length, align 4
  %65 = load ptr, ptr %5, align 8
  %66 = load i32, ptr %11, align 4
  %67 = call ptr @proto_tree_add_item(ptr noundef %63, i32 noundef %64, ptr noundef %65, i32 noundef %66, i32 noundef 2, i32 noundef -2147483648)
  %68 = load i32, ptr %11, align 4
  %69 = add i32 %68, 2
  store i32 %69, ptr %11, align 4
  %70 = load ptr, ptr %7, align 8
  %71 = load i32, ptr @hf_awdl_syncparams_aw_cmn_length, align 4
  %72 = load ptr, ptr %5, align 8
  %73 = load i32, ptr %11, align 4
  %74 = call ptr @proto_tree_add_item(ptr noundef %70, i32 noundef %71, ptr noundef %72, i32 noundef %73, i32 noundef 2, i32 noundef -2147483648)
  %75 = load i32, ptr %11, align 4
  %76 = add i32 %75, 2
  store i32 %76, ptr %11, align 4
  %77 = load ptr, ptr %7, align 8
  %78 = load i32, ptr @hf_awdl_syncparams_aw_remaining, align 4
  %79 = load ptr, ptr %5, align 8
  %80 = load i32, ptr %11, align 4
  %81 = call ptr @proto_tree_add_item(ptr noundef %77, i32 noundef %78, ptr noundef %79, i32 noundef %80, i32 noundef 2, i32 noundef -2147483648)
  %82 = load i32, ptr %11, align 4
  %83 = add i32 %82, 2
  store i32 %83, ptr %11, align 4
  %84 = load ptr, ptr %7, align 8
  %85 = load i32, ptr @hf_awdl_syncparams_ext_min, align 4
  %86 = load ptr, ptr %5, align 8
  %87 = load i32, ptr %11, align 4
  %88 = call ptr @proto_tree_add_item(ptr noundef %84, i32 noundef %85, ptr noundef %86, i32 noundef %87, i32 noundef 1, i32 noundef -2147483648)
  %89 = load i32, ptr %11, align 4
  %90 = add i32 %89, 1
  store i32 %90, ptr %11, align 4
  %91 = load ptr, ptr %7, align 8
  %92 = load i32, ptr @hf_awdl_syncparams_ext_max_multi, align 4
  %93 = load ptr, ptr %5, align 8
  %94 = load i32, ptr %11, align 4
  %95 = call ptr @proto_tree_add_item(ptr noundef %91, i32 noundef %92, ptr noundef %93, i32 noundef %94, i32 noundef 1, i32 noundef -2147483648)
  %96 = load i32, ptr %11, align 4
  %97 = add i32 %96, 1
  store i32 %97, ptr %11, align 4
  %98 = load ptr, ptr %7, align 8
  %99 = load i32, ptr @hf_awdl_syncparams_ext_max_uni, align 4
  %100 = load ptr, ptr %5, align 8
  %101 = load i32, ptr %11, align 4
  %102 = call ptr @proto_tree_add_item(ptr noundef %98, i32 noundef %99, ptr noundef %100, i32 noundef %101, i32 noundef 1, i32 noundef -2147483648)
  %103 = load i32, ptr %11, align 4
  %104 = add i32 %103, 1
  store i32 %104, ptr %11, align 4
  %105 = load ptr, ptr %7, align 8
  %106 = load i32, ptr @hf_awdl_syncparams_ext_max_af, align 4
  %107 = load ptr, ptr %5, align 8
  %108 = load i32, ptr %11, align 4
  %109 = call ptr @proto_tree_add_item(ptr noundef %105, i32 noundef %106, ptr noundef %107, i32 noundef %108, i32 noundef 1, i32 noundef -2147483648)
  %110 = load i32, ptr %11, align 4
  %111 = add i32 %110, 1
  store i32 %111, ptr %11, align 4
  %112 = load ptr, ptr %7, align 8
  %113 = load i32, ptr @hf_awdl_syncparams_master, align 4
  %114 = load ptr, ptr %5, align 8
  %115 = load i32, ptr %11, align 4
  %116 = call ptr @proto_tree_add_item(ptr noundef %112, i32 noundef %113, ptr noundef %114, i32 noundef %115, i32 noundef 6, i32 noundef 0)
  %117 = load i32, ptr %11, align 4
  %118 = add i32 %117, 6
  store i32 %118, ptr %11, align 4
  %119 = load ptr, ptr %7, align 8
  %120 = load i32, ptr @hf_awdl_syncparams_presence_mode, align 4
  %121 = load ptr, ptr %5, align 8
  %122 = load i32, ptr %11, align 4
  %123 = call ptr @proto_tree_add_item(ptr noundef %119, i32 noundef %120, ptr noundef %121, i32 noundef %122, i32 noundef 1, i32 noundef 0)
  %124 = load i32, ptr %11, align 4
  %125 = add i32 %124, 1
  store i32 %125, ptr %11, align 4
  %126 = load ptr, ptr %7, align 8
  %127 = load i32, ptr @hf_awdl_unknown, align 4
  %128 = load ptr, ptr %5, align 8
  %129 = load i32, ptr %11, align 4
  %130 = call ptr @proto_tree_add_item(ptr noundef %126, i32 noundef %127, ptr noundef %128, i32 noundef %129, i32 noundef 1, i32 noundef 0)
  %131 = load i32, ptr %11, align 4
  %132 = add i32 %131, 1
  store i32 %132, ptr %11, align 4
  %133 = load ptr, ptr %7, align 8
  %134 = load i32, ptr @hf_awdl_syncparams_awcounter, align 4
  %135 = load ptr, ptr %5, align 8
  %136 = load i32, ptr %11, align 4
  %137 = call ptr @proto_tree_add_item(ptr noundef %133, i32 noundef %134, ptr noundef %135, i32 noundef %136, i32 noundef 2, i32 noundef -2147483648)
  %138 = load i32, ptr %11, align 4
  %139 = add i32 %138, 2
  store i32 %139, ptr %11, align 4
  %140 = load ptr, ptr %7, align 8
  %141 = load i32, ptr @hf_awdl_syncparams_apbeaconalignment, align 4
  %142 = load ptr, ptr %5, align 8
  %143 = load i32, ptr %11, align 4
  %144 = call ptr @proto_tree_add_item(ptr noundef %140, i32 noundef %141, ptr noundef %142, i32 noundef %143, i32 noundef 2, i32 noundef -2147483648)
  %145 = load i32, ptr %11, align 4
  %146 = add i32 %145, 2
  store i32 %146, ptr %11, align 4
  %147 = load ptr, ptr %5, align 8
  %148 = load i32, ptr %11, align 4
  %149 = load i32, ptr %9, align 4
  %150 = load i32, ptr %11, align 4
  %151 = sub i32 %149, %150
  %152 = call ptr @tvb_new_subset_length(ptr noundef %147, i32 noundef %148, i32 noundef %151)
  store ptr %152, ptr %10, align 8
  %153 = load ptr, ptr %10, align 8
  %154 = load ptr, ptr %6, align 8
  %155 = load ptr, ptr %7, align 8
  %156 = load ptr, ptr %8, align 8
  %157 = call i32 @awdl_tag_channel_sequence(ptr noundef %153, ptr noundef %154, ptr noundef %155, ptr noundef %156)
  %158 = load i32, ptr %11, align 4
  %159 = add i32 %158, %157
  store i32 %159, ptr %11, align 4
  %160 = load i32, ptr %11, align 4
  call void @llvm.lifetime.end.p0(i64 4, ptr %11) #6
  call void @llvm.lifetime.end.p0(i64 8, ptr %10) #6
  call void @llvm.lifetime.end.p0(i64 4, ptr %9) #6
  ret i32 %160
}