; Function Attrs: null_pointer_is_valid sspstrong uwtable
define internal i32 @awdl_tag_sync_params(ptr noundef %0, ptr noundef readonly captures(none) %1, ptr noundef %2, ptr noundef readnone captures(none) %3) #0 {
  %5 = tail call i32 @tvb_reported_length(ptr noundef %0)
  %6 = load i32, ptr @hf_awdl_syncparams_tx_chan, align 4
  %7 = tail call ptr @proto_tree_add_item(ptr noundef %2, i32 noundef %6, ptr noundef %0, i32 noundef 0, i32 noundef 1, i32 noundef -2147483648)
  %8 = load i32, ptr @hf_awdl_syncparams_tx_counter, align 4
  %9 = tail call ptr @proto_tree_add_item(ptr noundef %2, i32 noundef %8, ptr noundef %0, i32 noundef 1, i32 noundef 2, i32 noundef -2147483648)
  %10 = load i32, ptr @hf_awdl_syncparams_master_chan, align 4
  %11 = tail call ptr @proto_tree_add_item(ptr noundef %2, i32 noundef %10, ptr noundef %0, i32 noundef 3, i32 noundef 1, i32 noundef -2147483648)
  %12 = load i32, ptr @hf_awdl_syncparams_guard_time, align 4
  %13 = tail call ptr @proto_tree_add_item(ptr noundef %2, i32 noundef %12, ptr noundef %0, i32 noundef 4, i32 noundef 1, i32 noundef -2147483648)
  %14 = load i32, ptr @hf_awdl_syncparams_aw_period, align 4
  %15 = tail call ptr @proto_tree_add_item(ptr noundef %2, i32 noundef %14, ptr noundef %0, i32 noundef 5, i32 noundef 2, i32 noundef -2147483648)
  %16 = load i32, ptr @hf_awdl_syncparams_action_frame_period, align 4
  %17 = tail call ptr @proto_tree_add_item(ptr noundef %2, i32 noundef %16, ptr noundef %0, i32 noundef 7, i32 noundef 2, i32 noundef -2147483648)
  %18 = load i32, ptr @hf_awdl_syncparams_awdl_flags, align 4
  %19 = tail call ptr @proto_tree_add_item(ptr noundef %2, i32 noundef %18, ptr noundef %0, i32 noundef 9, i32 noundef 2, i32 noundef -2147483648)
  %20 = load i32, ptr @hf_awdl_syncparams_aw_ext_length, align 4
  %21 = tail call ptr @proto_tree_add_item(ptr noundef %2, i32 noundef %20, ptr noundef %0, i32 noundef 11, i32 noundef 2, i32 noundef -2147483648)
  %22 = load i32, ptr @hf_awdl_syncparams_aw_cmn_length, align 4
  %23 = tail call ptr @proto_tree_add_item(ptr noundef %2, i32 noundef %22, ptr noundef %0, i32 noundef 13, i32 noundef 2, i32 noundef -2147483648)
  %24 = load i32, ptr @hf_awdl_syncparams_aw_remaining, align 4
  %25 = tail call ptr @proto_tree_add_item(ptr noundef %2, i32 noundef %24, ptr noundef %0, i32 noundef 15, i32 noundef 2, i32 noundef -2147483648)
  %26 = load i32, ptr @hf_awdl_syncparams_ext_min, align 4
  %27 = tail call ptr @proto_tree_add_item(ptr noundef %2, i32 noundef %26, ptr noundef %0, i32 noundef 17, i32 noundef 1, i32 noundef -2147483648)
  %28 = load i32, ptr @hf_awdl_syncparams_ext_max_multi, align 4
  %29 = tail call ptr @proto_tree_add_item(ptr noundef %2, i32 noundef %28, ptr noundef %0, i32 noundef 18, i32 noundef 1, i32 noundef -2147483648)
  %30 = load i32, ptr @hf_awdl_syncparams_ext_max_uni, align 4
  %31 = tail call ptr @proto_tree_add_item(ptr noundef %2, i32 noundef %30, ptr noundef %0, i32 noundef 19, i32 noundef 1, i32 noundef -2147483648)
  %32 = load i32, ptr @hf_awdl_syncparams_ext_max_af, align 4
  %33 = tail call ptr @proto_tree_add_item(ptr noundef %2, i32 noundef %32, ptr noundef %0, i32 noundef 20, i32 noundef 1, i32 noundef -2147483648)
  %34 = load i32, ptr @hf_awdl_syncparams_master, align 4
  %35 = tail call ptr @proto_tree_add_item(ptr noundef %2, i32 noundef %34, ptr noundef %0, i32 noundef 21, i32 noundef 6, i32 noundef 0)
  %36 = load i32, ptr @hf_awdl_syncparams_presence_mode, align 4
  %37 = tail call ptr @proto_tree_add_item(ptr noundef %2, i32 noundef %36, ptr noundef %0, i32 noundef 27, i32 noundef 1, i32 noundef 0)
  %38 = load i32, ptr @hf_awdl_unknown, align 4
  %39 = tail call ptr @proto_tree_add_item(ptr noundef %2, i32 noundef %38, ptr noundef %0, i32 noundef 28, i32 noundef 1, i32 noundef 0)
  %40 = load i32, ptr @hf_awdl_syncparams_awcounter, align 4
  %41 = tail call ptr @proto_tree_add_item(ptr noundef %2, i32 noundef %40, ptr noundef %0, i32 noundef 29, i32 noundef 2, i32 noundef -2147483648)
  %42 = load i32, ptr @hf_awdl_syncparams_apbeaconalignment, align 4
  %43 = tail call ptr @proto_tree_add_item(ptr noundef %2, i32 noundef %42, ptr noundef %0, i32 noundef 31, i32 noundef 2, i32 noundef -2147483648)
  %44 = add i32 %5, -33
  %45 = tail call ptr @tvb_new_subset_length(ptr noundef %0, i32 noundef 33, i32 noundef %44)
  %46 = tail call i32 @awdl_tag_channel_sequence(ptr noundef %45, ptr noundef %1, ptr noundef %2, ptr poison)
  %47 = add i32 %46, 33
  ret i32 %47
}